S'3.10'
p1
.S'LALR'
p1
.S'ADD ASTERISK_PERIOD BOOL COLON COMMA COMMAEND COMMENT DIVIDE EMINUS EPLUS EQ EQUAL FLOAT GE GT IDENTIFIER LE LEFTBRACE LEFTBRACKET LEFTPAREN LT MINUS MULTICOMMENT MULTIPLY NE NUMBER PERIOD QMARK RIGHTBRACE RIGHTBRACKET RIGHTPAREN STRINGtop : objectlistobjectlist : objectitemobjectlist : objectlist objectitemobjectlist : objectlist COMMA objectitemobject : LEFTBRACE objectlist RIGHTBRACEobject : LEFTBRACE objectlist COMMA RIGHTBRACEobject : LEFTBRACE RIGHTBRACE\n        objectkey : IDENTIFIER\n                  | STRING\n        \n        objectkey : IDENTIFIER ADD number\n                  | number ADD IDENTIFIER\n                  | IDENTIFIER MINUS number\n                  | number MINUS IDENTIFIER\n                  | IDENTIFIER MULTIPLY number\n                  | number MULTIPLY IDENTIFIER\n                  | IDENTIFIER DIVIDE number\n                  | number DIVIDE IDENTIFIER\n        objectbrackets : IDENTIFIER LEFTBRACKET objectkey RIGHTBRACKET\n        objectbrackets : IDENTIFIER LEFTBRACKET objectkey RIGHTBRACKET PERIOD IDENTIFIER\n                       | IDENTIFIER LEFTBRACKET NUMBER RIGHTBRACKET PERIOD IDENTIFIER\n        \n        objectitem : objectkey EQUAL number\n                   | objectkey EQUAL BOOL\n                   | objectkey EQUAL STRING\n                   | objectkey EQUAL IDENTIFIER\n                   | objectkey EQUAL object\n                   | objectkey EQUAL objectkey\n                   | objectkey EQUAL list\n                   | objectkey EQUAL objectbrackets\n                   | objectkey EQUAL function\n                   | objectkey EQUAL booleanexp\n                   | objectkey COLON number\n                   | objectkey COLON BOOL\n                   | objectkey COLON STRING\n                   | objectkey COLON IDENTIFIER\n                   | objectkey COLON object\n                   | objectkey COLON objectkey\n                   | objectkey COLON list\n                   | objectkey COLON objectbrackets\n                   | objectkey COLON booleanexp\n        objectitem : block\n        objectitem : objectkey EQUAL objectkey QMARK objectkey COLON objectkey\n                   | objectkey EQUAL objectkey QMARK objectkey COLON number\n                   | objectkey EQUAL objectkey QMARK objectkey COLON BOOL\n                   | objectkey EQUAL objectkey QMARK objectkey COLON function\n                   | objectkey EQUAL objectkey QMARK number COLON objectkey\n                   | objectkey EQUAL objectkey QMARK BOOL COLON objectkey\n                   | objectkey EQUAL objectkey QMARK function COLON objectkey\n                   | objectkey EQUAL objectkey QMARK number COLON number\n                   | objectkey EQUAL objectkey QMARK number COLON BOOL\n                   | objectkey EQUAL objectkey QMARK number COLON function\n                   | objectkey EQUAL objectkey QMARK BOOL COLON number\n                   | objectkey EQUAL objectkey QMARK BOOL COLON function\n                   | objectkey EQUAL objectkey QMARK BOOL COLON BOOL\n                   | objectkey EQUAL booleanexp QMARK objectkey COLON objectkey\n                   | objectkey EQUAL booleanexp QMARK objectkey COLON number\n                   | objectkey EQUAL booleanexp QMARK objectkey COLON BOOL\n                   | objectkey EQUAL booleanexp QMARK objectkey COLON function\n                   | objectkey EQUAL booleanexp QMARK number COLON objectkey\n                   | objectkey EQUAL booleanexp QMARK BOOL COLON objectkey\n                   | objectkey EQUAL booleanexp QMARK function COLON objectkey\n                   | objectkey EQUAL booleanexp QMARK number COLON number\n                   | objectkey EQUAL booleanexp QMARK number COLON BOOL\n                   | objectkey EQUAL booleanexp QMARK number COLON function\n                   | objectkey EQUAL booleanexp QMARK BOOL COLON number\n                   | objectkey EQUAL booleanexp QMARK BOOL COLON function\n                   | objectkey EQUAL booleanexp QMARK BOOL COLON BOOL\n        \n        operator : EQ\n                 | NE\n                 | LT\n                 | GT\n                 | LE\n                 | GE\n        \n        booleanexp : objectkey operator objectkey\n                   | objectkey operator number\n                   | number operator objectkey\n        block : objectkey objectblock : objectkey block\n        list : LEFTBRACKET listitems RIGHTBRACKET\n             | LEFTBRACKET listitems COMMA RIGHTBRACKET\n        \n        list : LEFTBRACKET RIGHTBRACKET\n             | LEFTPAREN RIGHTPAREN\n        \n        list : LEFTPAREN LEFTBRACKET listitems RIGHTBRACKET PERIOD PERIOD PERIOD RIGHTPAREN\n        \n        list_of_lists : list COMMA list\n        \n        list_of_lists : list_of_lists COMMA list\n        \n        function : IDENTIFIER LEFTPAREN listitems RIGHTPAREN\n                 | IDENTIFIER LEFTPAREN list_of_lists RIGHTPAREN\n        \n        function : IDENTIFIER LEFTPAREN listitems COMMA RIGHTPAREN\n                 | IDENTIFIER LEFTPAREN list_of_lists COMMA RIGHTPAREN\n        \n        function : IDENTIFIER LEFTPAREN list PERIOD PERIOD PERIOD RIGHTPAREN\n        \n        function : IDENTIFIER LEFTPAREN LEFTBRACKET list_of_lists RIGHTBRACKET PERIOD PERIOD PERIOD RIGHTPAREN\n        \n        listitems : listitem\n                  | function\n                  | object COMMA\n                  | objectkey COMMA\n        \n        listitems : listitems COMMA listitem\n                  | listitems COMMA function\n                  | listitems COMMA objectkey\n        \n        listitems : object COMMA object\n                  | object COMMA objectkey\n                  | objectkey COMMA objectkey\n                  | objectkey COMMA object\n                  | objectkey COMMA list\n        \n        listitems : objectkey COMMA IDENTIFIER ASTERISK_PERIOD IDENTIFIER\n        \n        listitems : objectkey list\n        \n        listitems : listitems COMMA COMMENT\n                  | listitems COMMA MULTICOMMENT\n        \n        listitem : number\n                 | object\n                 | objectkey\n                 | objectbrackets\n        \n        listitem : IDENTIFIER ASTERISK_PERIOD IDENTIFIER\n        number : intnumber : floatnumber : int expnumber : float exp\n        number : number ADD number\n        \n        number : number MINUS number\n        \n        number : number MULTIPLY number\n        \n        number : number DIVIDE number\n        int : MINUS intint : NUMBERfloat : MINUS floatfloat : FLOATexp : EPLUS NUMBERexp : EMINUS NUMBER\n        block : COMMENT\n              | MULTICOMMENT\n        '
p1
.(dp1
I0
(dp2
S'COMMENT'
p3
I6
sS'STRING'
p4
I11
sS'FLOAT'
p5
I14
sS'NUMBER'
p6
I12
sS'MULTICOMMENT'
p7
I3
sS'IDENTIFIER'
p8
I9
sS'MINUS'
p9
I5
ssI1
(dp10
g6
I-112
sS'RIGHTPAREN'
p11
I-112
sg7
I-112
sS'MULTIPLY'
p12
I-112
sS'MINUS'
p13
I-112
sg4
I-112
sg3
I-112
sS'EMINUS'
p14
I16
sS'LE'
p15
I-112
sS'EPLUS'
p16
I17
sS'NE'
p17
I-112
sS'LT'
p18
I-112
sS'COMMA'
p19
I-112
sS'LEFTBRACKET'
p20
I-112
sS'COLON'
p21
I-112
sg8
I-112
sS'$end'
p22
I-112
sS'RIGHTBRACKET'
p23
I-112
sS'GT'
p24
I-112
sS'DIVIDE'
p25
I-112
sS'LEFTPAREN'
p26
I-112
sS'RIGHTBRACE'
p27
I-112
sS'EQUAL'
p28
I-112
sS'GE'
p29
I-112
sS'EQ'
p30
I-112
sS'LEFTBRACE'
p31
I-112
sS'QMARK'
p32
I-112
sg5
I-112
sS'ADD'
p33
I-112
ssI2
(dp34
g6
I-113
sg11
I-113
sg7
I-113
sg12
I-113
sg13
I-113
sg4
I-113
sg3
I-113
sg14
I16
sg15
I-113
sg16
I17
sg17
I-113
sg18
I-113
sg19
I-113
sg20
I-113
sg21
I-113
sg8
I-113
sg22
I-113
sg23
I-113
sg24
I-113
sg25
I-113
sg26
I-113
sg27
I-113
sg28
I-113
sg29
I-113
sg30
I-113
sg31
I-113
sg32
I-113
sg5
I-113
sg33
I-113
ssI3
(dp35
g3
I-127
sg4
I-127
sg5
I-127
sg27
I-127
sg6
I-127
sS'COMMA'
p36
I-127
sg7
I-127
sg8
I-127
sg9
I-127
sg22
I-127
ssI4
(dp37
g3
I-2
sg4
I-2
sg5
I-2
sg27
I-2
sg6
I-2
sg36
I-2
sg7
I-2
sg8
I-2
sg9
I-2
sg22
I-2
ssI5
(dp38
g5
I14
sg9
I5
sg6
I12
ssI6
(dp39
g3
I-126
sg4
I-126
sg5
I-126
sg27
I-126
sg6
I-126
sg36
I-126
sg7
I-126
sg8
I-126
sg9
I-126
sg22
I-126
ssI7
(dp40
S'$end'
p41
I0
ssI8
(dp42
g3
I6
sg31
I26
sg5
I14
sg28
I22
sg6
I12
sg21
I24
sg7
I3
sg8
I9
sg9
I5
sg4
I11
ssI9
(dp43
g3
I-8
sg22
I-8
sg23
I-8
sg31
I-8
sS'QMARK'
p44
I-8
sg11
I-8
sg5
I-8
sg6
I-8
sS'DIVIDE'
p45
I28
sg28
I-8
sg27
I-8
sg21
I-8
sg7
I-8
sS'MULTIPLY'
p46
I30
sg19
I-8
sg8
I-8
sS'ADD'
p47
I29
sg9
I31
sg4
I-8
ssI10
(dp48
g3
I6
sg4
I11
sg5
I14
sg6
I12
sg19
I33
sg7
I3
sg8
I9
sg9
I5
sg22
I-1
ssI11
(dp49
g3
I-9
sg22
I-9
sg23
I-9
sg31
I-9
sg44
I-9
sg7
I-9
sg5
I-9
sg26
I-9
sg6
I-9
sg28
I-9
sg27
I-9
sS'COMMA'
p50
I-9
sg20
I-9
sg11
I-9
sg21
I-9
sg8
I-9
sg9
I-9
sg4
I-9
ssI12
(dp51
g6
I-121
sg11
I-121
sg7
I-121
sg12
I-121
sg13
I-121
sg4
I-121
sg3
I-121
sg14
I-121
sg15
I-121
sg16
I-121
sg17
I-121
sg18
I-121
sg19
I-121
sg20
I-121
sg21
I-121
sg8
I-121
sg22
I-121
sg23
I-121
sg24
I-121
sg25
I-121
sg26
I-121
sg27
I-121
sg28
I-121
sg29
I-121
sg30
I-121
sg31
I-121
sg44
I-121
sg5
I-121
sg33
I-121
ssI13
(dp52
S'MULTIPLY'
p53
I36
sS'ADD'
p54
I35
sS'MINUS'
p55
I37
sS'DIVIDE'
p56
I34
ssI14
(dp57
g6
I-123
sg11
I-123
sg7
I-123
sg53
I-123
sg55
I-123
sg4
I-123
sg3
I-123
sg14
I-123
sg15
I-123
sg16
I-123
sg17
I-123
sg18
I-123
sS'COMMA'
p58
I-123
sg20
I-123
sg21
I-123
sg8
I-123
sg22
I-123
sg23
I-123
sg24
I-123
sg56
I-123
sg26
I-123
sg27
I-123
sg28
I-123
sg29
I-123
sg30
I-123
sg31
I-123
sg44
I-123
sg5
I-123
sg54
I-123
ssI15
(dp59
g3
I-40
sg4
I-40
sg5
I-40
sg6
I-40
sg27
I-40
sg19
I-40
sg7
I-40
sg8
I-40
sg9
I-40
sg22
I-40
ssI16
(dp60
S'NUMBER'
p61
I38
ssI17
(dp62
S'NUMBER'
p63
I39
ssI18
(dp64
g6
I-114
sg11
I-114
sg7
I-114
sg12
I-114
sg13
I-114
sg4
I-114
sg3
I-114
sg15
I-114
sg17
I-114
sg18
I-114
sg19
I-114
sg20
I-114
sg21
I-114
sg8
I-114
sg22
I-114
sg23
I-114
sg24
I-114
sg25
I-114
sg26
I-114
sg27
I-114
sg28
I-114
sg29
I-114
sg30
I-114
sg31
I-114
sg32
I-114
sg5
I-114
sg33
I-114
ssI19
(dp65
g6
I-115
sg11
I-115
sg7
I-115
sg12
I-115
sg13
I-115
sg4
I-115
sg3
I-115
sg15
I-115
sg17
I-115
sg18
I-115
sg19
I-115
sg20
I-115
sg21
I-115
sg8
I-115
sg22
I-115
sg23
I-115
sg24
I-115
sg25
I-115
sg26
I-115
sg27
I-115
sg28
I-115
sg29
I-115
sg30
I-115
sg31
I-115
sg32
I-115
sg5
I-115
sg33
I-115
ssI20
(dp66
g6
I-120
sg11
I-120
sg7
I-120
sg12
I-120
sg13
I-120
sg4
I-120
sg3
I-120
sg14
I-120
sg15
I-120
sg16
I-120
sg17
I-120
sg18
I-120
sg19
I-120
sg20
I-120
sg21
I-120
sg8
I-120
sg22
I-120
sg23
I-120
sg24
I-120
sg25
I-120
sg26
I-120
sg27
I-120
sg28
I-120
sg29
I-120
sg30
I-120
sg31
I-120
sg44
I-120
sg5
I-120
sg33
I-120
ssI21
(dp67
g6
I-122
sg11
I-122
sg7
I-122
sg53
I-122
sg55
I-122
sg4
I-122
sg3
I-122
sg14
I-122
sg15
I-122
sg16
I-122
sg17
I-122
sg18
I-122
sg58
I-122
sg20
I-122
sg21
I-122
sg8
I-122
sg22
I-122
sg23
I-122
sg24
I-122
sg56
I-122
sg26
I-122
sg27
I-122
sg28
I-122
sg29
I-122
sg30
I-122
sg31
I-122
sg44
I-122
sg5
I-122
sg54
I-122
ssI22
(dp68
S'STRING'
p69
I46
sg5
I14
sg26
I47
sg6
I12
sS'BOOL'
p70
I51
sg20
I42
sS'IDENTIFIER'
p71
I44
sg9
I5
sg31
I26
ssI23
(dp72
g3
I6
sg31
I26
sg5
I14
sg6
I12
sg7
I3
sg8
I9
sg9
I5
sg4
I11
ssI24
(dp73
S'STRING'
p74
I57
sg5
I14
sg26
I47
sg6
I12
sS'BOOL'
p75
I55
sg20
I42
sS'IDENTIFIER'
p76
I56
sg9
I5
sg31
I26
ssI25
(dp77
g3
I-76
sg4
I-76
sg5
I-76
sg27
I-76
sg6
I-76
sg36
I-76
sg7
I-76
sg8
I-76
sg9
I-76
sg22
I-76
ssI26
(dp78
g3
I6
sg4
I11
sg5
I14
sS'RIGHTBRACE'
p79
I62
sg6
I12
sg7
I3
sg8
I9
sg9
I5
ssI27
(dp80
g3
I-77
sg4
I-77
sg5
I-77
sg27
I-77
sg6
I-77
sg36
I-77
sg7
I-77
sg8
I-77
sg9
I-77
sg22
I-77
ssI28
(dp81
g5
I14
sg9
I5
sg6
I12
ssI29
(dp82
g5
I14
sg9
I5
sg6
I12
ssI30
(dp83
g5
I14
sg9
I5
sg6
I12
ssI31
(dp84
g5
I14
sg9
I5
sg6
I12
ssI32
(dp85
g3
I-3
sg4
I-3
sg5
I-3
sg27
I-3
sg6
I-3
sg36
I-3
sg7
I-3
sg8
I-3
sg9
I-3
sg22
I-3
ssI33
(dp86
g3
I6
sg4
I11
sg5
I14
sg6
I12
sg7
I3
sg8
I9
sg9
I5
ssI34
(dp87
g5
I14
sS'IDENTIFIER'
p88
I69
sg9
I5
sg6
I12
ssI35
(dp89
g5
I14
sS'IDENTIFIER'
p90
I71
sg9
I5
sg6
I12
ssI36
(dp91
g5
I14
sS'IDENTIFIER'
p92
I73
sg9
I5
sg6
I12
ssI37
(dp93
g5
I14
sS'IDENTIFIER'
p94
I75
sg9
I5
sg6
I12
ssI38
(dp95
g6
I-125
sg11
I-125
sg7
I-125
sg53
I-125
sg55
I-125
sg4
I-125
sg3
I-125
sg15
I-125
sg17
I-125
sg18
I-125
sg19
I-125
sg20
I-125
sg21
I-125
sg8
I-125
sg22
I-125
sg23
I-125
sg24
I-125
sg56
I-125
sg26
I-125
sg27
I-125
sg28
I-125
sg29
I-125
sg30
I-125
sg31
I-125
sg32
I-125
sg5
I-125
sg54
I-125
ssI39
(dp96
g6
I-124
sg11
I-124
sg7
I-124
sg53
I-124
sg55
I-124
sg4
I-124
sg3
I-124
sg15
I-124
sg17
I-124
sg18
I-124
sg19
I-124
sg20
I-124
sg21
I-124
sg8
I-124
sg22
I-124
sg23
I-124
sg24
I-124
sg56
I-124
sg26
I-124
sg27
I-124
sg28
I-124
sg29
I-124
sg30
I-124
sg31
I-124
sg32
I-124
sg5
I-124
sg54
I-124
ssI40
(dp97
g3
I-30
sg4
I-30
sg44
I76
sg5
I-30
sg6
I-30
sg27
I-30
sg19
I-30
sg7
I-30
sg8
I-30
sg9
I-30
sg22
I-30
ssI41
(dp98
g3
I-26
sg24
I78
sg29
I79
sg4
I-26
sg32
I81
sg5
I-26
sg6
I-26
sg27
I-26
sg18
I82
sg15
I77
sg19
I-26
sg7
I-26
sg8
I-26
sg30
I84
sg9
I-26
sg17
I80
sg22
I-26
ssI42
(dp99
S'RIGHTBRACKET'
p100
I90
sg31
I26
sg5
I14
sg6
I12
sS'IDENTIFIER'
p101
I88
sg9
I5
sg4
I11
ssI43
(dp102
g3
I-28
sg4
I-28
sg5
I-28
sg6
I-28
sg27
I-28
sg19
I-28
sg7
I-28
sg8
I-28
sg9
I-28
sg22
I-28
ssI44
(dp103
g6
I-8
sg7
I-8
sg46
I30
sg9
I31
sg4
I-8
sg3
I-8
sg15
I-8
sg17
I-8
sg18
I-8
sg19
I-8
sS'LEFTBRACKET'
p104
I95
sg8
I-8
sg22
I-8
sg24
I-8
sg45
I28
sS'LEFTPAREN'
p105
I94
sg27
I-8
sg29
I-8
sg30
I-8
sg32
I-8
sg5
I-8
sg47
I29
ssI45
(dp106
g3
I-29
sg4
I-29
sg5
I-29
sg6
I-29
sg27
I-29
sg19
I-29
sg7
I-29
sg8
I-29
sg9
I-29
sg22
I-29
ssI46
(dp107
g3
I-9
sg24
I-9
sg29
I-9
sg4
I-9
sg32
I-9
sg5
I-9
sg6
I-9
sg27
I-9
sg18
I-9
sg15
I-9
sg19
I-9
sg7
I-9
sg8
I-9
sg30
I-9
sg9
I-9
sg17
I-9
sg22
I-9
ssI47
(dp108
S'RIGHTPAREN'
p109
I96
sS'LEFTBRACKET'
p110
I97
ssI48
(dp111
g3
I-25
sg4
I-25
sg5
I-25
sg6
I-25
sg27
I-25
sg19
I-25
sg7
I-25
sg8
I-25
sg9
I-25
sg22
I-25
ssI49
(dp112
g3
I-21
sg25
I98
sg24
I78
sg29
I79
sg4
I-21
sg5
I-21
sg18
I82
sg6
I-21
sg27
I-21
sg33
I100
sg15
I77
sg19
I-21
sg7
I-21
sg12
I101
sg8
I-21
sg30
I84
sg9
I102
sg17
I80
sg22
I-21
ssI50
(dp113
g3
I-27
sg4
I-27
sg5
I-27
sg6
I-27
sg27
I-27
sg19
I-27
sg7
I-27
sg8
I-27
sg9
I-27
sg22
I-27
ssI51
(dp114
g3
I-22
sg4
I-22
sg5
I-22
sg6
I-22
sg27
I-22
sg19
I-22
sg7
I-22
sg8
I-22
sg9
I-22
sg22
I-22
ssI52
(dp115
g3
I-31
sg25
I98
sg24
I78
sg29
I79
sg4
I-31
sg5
I-31
sg18
I82
sg6
I-31
sg27
I-31
sg33
I100
sg15
I77
sg19
I-31
sg7
I-31
sg12
I101
sg8
I-31
sg30
I84
sg9
I102
sg17
I80
sg22
I-31
ssI53
(dp116
g3
I-39
sg4
I-39
sg5
I-39
sg6
I-39
sg27
I-39
sg19
I-39
sg7
I-39
sg8
I-39
sg9
I-39
sg22
I-39
ssI54
(dp117
g3
I-36
sg24
I78
sg29
I79
sg4
I-36
sg5
I-36
sg6
I-36
sg27
I-36
sg18
I82
sg15
I77
sg19
I-36
sg7
I-36
sg8
I-36
sg30
I84
sg9
I-36
sg17
I80
sg22
I-36
ssI55
(dp118
g3
I-32
sg4
I-32
sg5
I-32
sg6
I-32
sg27
I-32
sg19
I-32
sg7
I-32
sg8
I-32
sg9
I-32
sg22
I-32
ssI56
(dp119
g3
I-8
sg45
I28
sg24
I-8
sg29
I-8
sg4
I-8
sg47
I29
sg104
I95
sg5
I-8
sg6
I-8
sg27
I-8
sg18
I-8
sg15
I-8
sg19
I-8
sg7
I-8
sg46
I30
sg8
I-8
sg30
I-8
sg9
I31
sg17
I-8
sg22
I-8
ssI57
(dp120
g3
I-9
sg24
I-9
sg29
I-9
sg4
I-9
sg5
I-9
sg6
I-9
sg27
I-9
sg18
I-9
sg15
I-9
sg19
I-9
sg7
I-9
sg8
I-9
sg30
I-9
sg9
I-9
sg17
I-9
sg22
I-9
ssI58
(dp121
g3
I-35
sg4
I-35
sg5
I-35
sg6
I-35
sg27
I-35
sg19
I-35
sg7
I-35
sg8
I-35
sg9
I-35
sg22
I-35
ssI59
(dp122
g3
I-37
sg4
I-37
sg5
I-37
sg6
I-37
sg27
I-37
sg19
I-37
sg7
I-37
sg8
I-37
sg9
I-37
sg22
I-37
ssI60
(dp123
g3
I-38
sg4
I-38
sg5
I-38
sg6
I-38
sg27
I-38
sg19
I-38
sg7
I-38
sg8
I-38
sg9
I-38
sg22
I-38
ssI61
(dp124
g3
I6
sg4
I11
sg5
I14
sg27
I104
sg6
I12
sg36
I103
sg7
I3
sg8
I9
sg9
I5
ssI62
(dp125
g3
I-7
sg23
I-7
sg4
I-7
sg5
I-7
sg6
I-7
sg27
I-7
sg19
I-7
sg7
I-7
sg11
I-7
sg8
I-7
sg9
I-7
sg22
I-7
ssI63
(dp126
g6
I-16
sg11
I-16
sg7
I-16
sg12
I107
sg9
I108
sg25
I105
sg3
I-16
sg15
I-16
sg17
I-16
sg18
I-16
sg50
I-16
sg20
I-16
sg21
I-16
sg8
I-16
sg22
I-16
sg23
I-16
sg24
I-16
sg4
I-16
sg26
I-16
sg27
I-16
sg28
I-16
sg29
I-16
sg30
I-16
sg31
I-16
sg32
I-16
sg5
I-16
sg33
I106
ssI64
(dp127
g6
I-10
sg11
I-10
sg7
I-10
sg12
I107
sg9
I108
sg25
I105
sg3
I-10
sg15
I-10
sg17
I-10
sg18
I-10
sg50
I-10
sg20
I-10
sg21
I-10
sg8
I-10
sg22
I-10
sg23
I-10
sg24
I-10
sg4
I-10
sg26
I-10
sg27
I-10
sg28
I-10
sg29
I-10
sg30
I-10
sg31
I-10
sg32
I-10
sg5
I-10
sg33
I106
ssI65
(dp128
g6
I-14
sg11
I-14
sg7
I-14
sg12
I107
sg9
I108
sg25
I105
sg3
I-14
sg15
I-14
sg17
I-14
sg18
I-14
sg50
I-14
sg20
I-14
sg21
I-14
sg8
I-14
sg22
I-14
sg23
I-14
sg24
I-14
sg4
I-14
sg26
I-14
sg27
I-14
sg28
I-14
sg29
I-14
sg30
I-14
sg31
I-14
sg32
I-14
sg5
I-14
sg33
I106
ssI66
(dp129
g6
I-12
sg11
I-12
sg7
I-12
sg12
I107
sg9
I108
sg25
I105
sg3
I-12
sg15
I-12
sg17
I-12
sg18
I-12
sg50
I-12
sg20
I-12
sg21
I-12
sg8
I-12
sg22
I-12
sg23
I-12
sg24
I-12
sg4
I-12
sg26
I-12
sg27
I-12
sg28
I-12
sg29
I-12
sg30
I-12
sg31
I-12
sg32
I-12
sg5
I-12
sg33
I106
ssI67
(dp130
g3
I-4
sg4
I-4
sg5
I-4
sg27
I-4
sg6
I-4
sg36
I-4
sg7
I-4
sg8
I-4
sg9
I-4
sg22
I-4
ssI68
(dp131
g6
I-119
sg11
I-119
sg7
I-119
sg12
I107
sg13
I108
sg4
I-119
sg3
I-119
sg15
I-119
sg17
I-119
sg18
I-119
sg19
I-119
sg20
I-119
sg21
I-119
sg8
I-119
sg22
I-119
sg23
I-119
sg24
I-119
sg25
I105
sg26
I-119
sg27
I-119
sg28
I-119
sg29
I-119
sg30
I-119
sg31
I-119
sg32
I-119
sg5
I-119
sg33
I106
ssI69
(dp132
g6
I-17
sg11
I-17
sg7
I-17
sg9
I-17
sg3
I-17
sg15
I-17
sg17
I-17
sg18
I-17
sg50
I-17
sg20
I-17
sg21
I-17
sg8
I-17
sg22
I-17
sg23
I-17
sg24
I-17
sg4
I-17
sg26
I-17
sg27
I-17
sg28
I-17
sg29
I-17
sg30
I-17
sg31
I-17
sg32
I-17
sg5
I-17
ssI70
(dp133
g6
I-116
sg11
I-116
sg7
I-116
sg12
I107
sg13
I108
sg4
I-116
sg3
I-116
sg15
I-116
sg17
I-116
sg18
I-116
sg19
I-116
sg20
I-116
sg21
I-116
sg8
I-116
sg22
I-116
sg23
I-116
sg24
I-116
sg25
I105
sg26
I-116
sg27
I-116
sg28
I-116
sg29
I-116
sg30
I-116
sg31
I-116
sg32
I-116
sg5
I-116
sg33
I106
ssI71
(dp134
g6
I-11
sg11
I-11
sg7
I-11
sg9
I-11
sg3
I-11
sg15
I-11
sg17
I-11
sg18
I-11
sg50
I-11
sg20
I-11
sg21
I-11
sg8
I-11
sg22
I-11
sg23
I-11
sg24
I-11
sg4
I-11
sg26
I-11
sg27
I-11
sg28
I-11
sg29
I-11
sg30
I-11
sg31
I-11
sg32
I-11
sg5
I-11
ssI72
(dp135
g6
I-118
sg11
I-118
sg7
I-118
sg12
I107
sg13
I108
sg4
I-118
sg3
I-118
sg15
I-118
sg17
I-118
sg18
I-118
sg19
I-118
sg20
I-118
sg21
I-118
sg8
I-118
sg22
I-118
sg23
I-118
sg24
I-118
sg25
I105
sg26
I-118
sg27
I-118
sg28
I-118
sg29
I-118
sg30
I-118
sg31
I-118
sg32
I-118
sg5
I-118
sg33
I106
ssI73
(dp136
g6
I-15
sg11
I-15
sg7
I-15
sg9
I-15
sg3
I-15
sg15
I-15
sg17
I-15
sg18
I-15
sg50
I-15
sg20
I-15
sg21
I-15
sg8
I-15
sg22
I-15
sg23
I-15
sg24
I-15
sg4
I-15
sg26
I-15
sg27
I-15
sg28
I-15
sg29
I-15
sg30
I-15
sg31
I-15
sg32
I-15
sg5
I-15
ssI74
(dp137
g6
I-117
sg11
I-117
sg7
I-117
sg12
I107
sg13
I108
sg4
I-117
sg3
I-117
sg15
I-117
sg17
I-117
sg18
I-117
sg19
I-117
sg20
I-117
sg21
I-117
sg8
I-117
sg22
I-117
sg23
I-117
sg24
I-117
sg25
I105
sg26
I-117
sg27
I-117
sg28
I-117
sg29
I-117
sg30
I-117
sg31
I-117
sg32
I-117
sg5
I-117
sg33
I106
ssI75
(dp138
g6
I-13
sg11
I-13
sg7
I-13
sg9
I-13
sg3
I-13
sg15
I-13
sg17
I-13
sg18
I-13
sg50
I-13
sg20
I-13
sg21
I-13
sg8
I-13
sg22
I-13
sg23
I-13
sg24
I-13
sg4
I-13
sg26
I-13
sg27
I-13
sg28
I-13
sg29
I-13
sg30
I-13
sg31
I-13
sg32
I-13
sg5
I-13
ssI76
(dp139
g4
I11
sg5
I14
sg6
I12
sS'BOOL'
p140
I113
sg8
I110
sg9
I5
ssI77
(dp141
g6
I-71
sg5
I-71
sg8
I-71
sg4
I-71
sg9
I-71
ssI78
(dp142
g6
I-70
sg5
I-70
sg8
I-70
sg4
I-70
sg9
I-70
ssI79
(dp143
g6
I-72
sg5
I-72
sg8
I-72
sg4
I-72
sg9
I-72
ssI80
(dp144
g6
I-68
sg5
I-68
sg8
I-68
sg4
I-68
sg9
I-68
ssI81
(dp145
g4
I11
sg5
I14
sg6
I12
sS'BOOL'
p146
I117
sg8
I110
sg9
I5
ssI82
(dp147
g6
I-69
sg5
I-69
sg8
I-69
sg4
I-69
sg9
I-69
ssI83
(dp148
g6
I12
sg5
I14
sg8
I9
sg4
I11
sg9
I5
ssI84
(dp149
g6
I-67
sg5
I-67
sg8
I-67
sg4
I-67
sg9
I-67
ssI85
(dp150
g23
I120
sS'COMMA'
p151
I121
ssI86
(dp152
g11
I-109
sg23
I-109
sg26
I47
sg50
I123
sg20
I42
ssI87
(dp153
g11
I-91
sS'RIGHTBRACKET'
p154
I-91
sS'COMMA'
p155
I-91
ssI88
(dp156
g23
I-8
sg45
I28
sg105
I94
sg47
I29
sg50
I-8
sg20
I95
sg46
I30
sg11
I-8
sS'MINUS'
p157
I31
sS'ASTERISK_PERIOD'
p158
I124
ssI89
(dp159
g11
I-92
sg154
I-92
sg155
I-92
ssI90
(dp160
g3
I-80
sg23
I-80
sg4
I-80
sg5
I-80
sg6
I-80
sS'PERIOD'
p161
I-80
sg27
I-80
sg11
I-80
sg7
I-80
sg151
I-80
sg8
I-80
sg9
I-80
sg22
I-80
ssI91
(dp162
g11
I-108
sg23
I-108
sS'COMMA'
p163
I125
ssI92
(dp164
g154
I-107
sg56
I34
sg54
I35
sg11
I-107
sg53
I36
sg155
I-107
sg55
I37
ssI93
(dp165
g11
I-110
sg154
I-110
sg155
I-110
ssI94
(dp166
g31
I26
sg5
I14
sg26
I47
sg6
I12
sS'LEFTBRACKET'
p167
I127
sg101
I88
sg9
I5
sg4
I11
ssI95
(dp168
g5
I14
sg8
I9
sg9
I5
sS'NUMBER'
p169
I130
sg4
I11
ssI96
(dp170
g3
I-81
sg23
I-81
sg4
I-81
sg5
I-81
sg6
I-81
sg161
I-81
sg27
I-81
sg11
I-81
sg7
I-81
sg151
I-81
sg8
I-81
sg9
I-81
sg22
I-81
ssI97
(dp171
g31
I26
sg5
I14
sg6
I12
sg101
I88
sg9
I5
sg4
I11
ssI98
(dp172
g5
I14
sg88
I69
sg9
I5
sg6
I12
ssI99
(dp173
g6
I12
sg5
I14
sg8
I9
sg4
I11
sg9
I5
ssI100
(dp174
g5
I14
sg90
I71
sg9
I5
sg6
I12
ssI101
(dp175
g5
I14
sg92
I73
sg9
I5
sg6
I12
ssI102
(dp176
g5
I14
sg94
I75
sg9
I5
sg6
I12
ssI103
(dp177
g3
I6
sg4
I11
sg5
I14
sS'RIGHTBRACE'
p178
I134
sg6
I12
sg7
I3
sg8
I9
sg9
I5
ssI104
(dp179
g3
I-5
sg23
I-5
sg4
I-5
sg5
I-5
sg6
I-5
sg27
I-5
sg19
I-5
sg7
I-5
sg11
I-5
sg8
I-5
sg9
I-5
sg22
I-5
ssI105
(dp180
g5
I14
sg9
I5
sg6
I12
ssI106
(dp181
g5
I14
sg9
I5
sg6
I12
ssI107
(dp182
g5
I14
sg9
I5
sg6
I12
ssI108
(dp183
g5
I14
sg9
I5
sg6
I12
ssI109
(dp184
S'COLON'
p185
I135
ssI110
(dp186
g3
I-8
sg45
I28
sg4
I-8
sg5
I-8
sg105
I94
sg6
I-8
sg27
I-8
sg47
I29
sg19
I-8
sg7
I-8
sg46
I30
sg185
I-8
sg8
I-8
sg9
I31
sg22
I-8
ssI111
(dp187
S'COLON'
p188
I136
ssI112
(dp189
g53
I36
sg54
I35
sS'COLON'
p190
I137
sg55
I37
sg56
I34
ssI113
(dp191
S'COLON'
p192
I138
ssI114
(dp193
S'COLON'
p194
I139
ssI115
(dp195
S'COLON'
p196
I140
ssI116
(dp197
g53
I36
sg54
I35
sS'COLON'
p198
I141
sg55
I37
sg56
I34
ssI117
(dp199
S'COLON'
p200
I142
ssI118
(dp201
g3
I-74
sg56
I34
sg4
I-74
sg44
I-74
sg5
I-74
sg6
I-74
sg27
I-74
sg54
I35
sg19
I-74
sg7
I-74
sg53
I36
sg8
I-74
sg9
I37
sg22
I-74
ssI119
(dp202
g3
I-73
sg4
I-73
sg44
I-73
sg5
I-73
sg6
I-73
sg27
I-73
sg19
I-73
sg7
I-73
sg8
I-73
sg9
I-73
sg22
I-73
ssI120
(dp203
g3
I-78
sg23
I-78
sg4
I-78
sg5
I-78
sg6
I-78
sg161
I-78
sg27
I-78
sg11
I-78
sg7
I-78
sg151
I-78
sg8
I-78
sg9
I-78
sg22
I-78
ssI121
(dp204
S'COMMENT'
p205
I144
sS'RIGHTBRACKET'
p206
I148
sg4
I11
sg5
I14
sg6
I12
sS'MULTICOMMENT'
p207
I143
sg101
I88
sg9
I5
sg31
I26
ssI122
(dp208
g11
I-104
sg154
I-104
sg155
I-104
ssI123
(dp209
g154
I-94
sg4
I11
sg5
I14
sg26
I47
sg6
I12
sg11
I-94
sg20
I42
sg155
I-94
sS'IDENTIFIER'
p210
I151
sg9
I5
sg31
I26
ssI124
(dp211
S'IDENTIFIER'
p212
I154
ssI125
(dp213
g154
I-93
sg31
I26
sg5
I14
sg6
I12
sg11
I-93
sg155
I-93
sg8
I9
sg9
I5
sg4
I11
ssI126
(dp214
S'COMMA'
p215
I158
sS'RIGHTPAREN'
p216
I157
ssI127
(dp217
g100
I90
sg31
I26
sg5
I14
sg26
I47
sg6
I12
sg20
I42
sg101
I88
sg9
I5
sg4
I11
ssI128
(dp218
g58
I162
sg11
I161
ssI129
(dp219
S'COMMA'
p220
I164
sg161
I163
ssI130
(dp221
g14
I-121
sS'RIGHTBRACKET'
p222
I165
sg16
I-121
sg56
I-121
sg54
I-121
sg53
I-121
sg55
I-121
ssI131
(dp223
S'RIGHTBRACKET'
p224
I166
ssI132
(dp225
g154
I167
sg155
I168
ssI133
(dp226
g3
I-75
sg4
I-75
sg44
I-75
sg5
I-75
sg6
I-75
sg27
I-75
sg19
I-75
sg7
I-75
sg8
I-75
sg9
I-75
sg22
I-75
ssI134
(dp227
g3
I-6
sg23
I-6
sg4
I-6
sg5
I-6
sg6
I-6
sg27
I-6
sg19
I-6
sg7
I-6
sg11
I-6
sg8
I-6
sg9
I-6
sg22
I-6
ssI135
(dp228
g4
I11
sg5
I14
sg6
I12
sS'BOOL'
p229
I172
sg8
I110
sg9
I5
ssI136
(dp230
g6
I12
sg5
I14
sg8
I9
sg4
I11
sg9
I5
ssI137
(dp231
g4
I11
sg5
I14
sg6
I12
sS'BOOL'
p232
I177
sg8
I110
sg9
I5
ssI138
(dp233
g4
I11
sg5
I14
sg6
I12
sS'BOOL'
p234
I181
sg8
I110
sg9
I5
ssI139
(dp235
g4
I11
sg5
I14
sg6
I12
sS'BOOL'
p236
I185
sg8
I110
sg9
I5
ssI140
(dp237
g6
I12
sg5
I14
sg8
I9
sg4
I11
sg9
I5
ssI141
(dp238
g4
I11
sg5
I14
sg6
I12
sS'BOOL'
p239
I190
sg8
I110
sg9
I5
ssI142
(dp240
g4
I11
sg5
I14
sg6
I12
sS'BOOL'
p241
I194
sg8
I110
sg9
I5
ssI143
(dp242
g11
I-106
sg154
I-106
sg155
I-106
ssI144
(dp243
g11
I-105
sg154
I-105
sg155
I-105
ssI145
(dp244
g11
I-97
sg154
I-97
sg155
I-97
ssI146
(dp245
g11
I-95
sg154
I-95
sg155
I-95
ssI147
(dp246
g11
I-96
sg154
I-96
sg155
I-96
ssI148
(dp247
g3
I-79
sg23
I-79
sg4
I-79
sg5
I-79
sg6
I-79
sg161
I-79
sg27
I-79
sg11
I-79
sg7
I-79
sg151
I-79
sg8
I-79
sg9
I-79
sg22
I-79
ssI149
(dp248
g11
I-108
sg154
I-108
sg155
I-108
ssI150
(dp249
g11
I-100
sg154
I-100
sg155
I-100
ssI151
(dp250
g23
I-8
sg45
I28
sg47
I29
sg11
I-8
sg46
I30
sg151
I-8
sg157
I31
sS'ASTERISK_PERIOD'
p251
I195
ssI152
(dp252
g11
I-101
sg154
I-101
sg155
I-101
ssI153
(dp253
g11
I-102
sg154
I-102
sg155
I-102
ssI154
(dp254
g11
I-111
sg154
I-111
sg155
I-111
ssI155
(dp255
g11
I-98
sg154
I-98
sg155
I-98
ssI156
(dp256
g11
I-99
sg154
I-99
sg155
I-99
ssI157
(dp257
g3
I-86
sg154
I-86
sg4
I-86
sg5
I-86
sg6
I-86
sg27
I-86
sg188
I-86
sg19
I-86
sg7
I-86
sg11
I-86
sg8
I-86
sg9
I-86
sg22
I-86
ssI158
(dp258
g26
I47
sS'RIGHTPAREN'
p259
I197
sg20
I42
ssI159
(dp260
S'RIGHTBRACKET'
p261
I198
sS'COMMA'
p262
I199
ssI160
(dp263
g220
I164
ssI161
(dp264
g3
I-85
sg154
I-85
sg4
I-85
sg5
I-85
sg6
I-85
sg27
I-85
sg188
I-85
sg19
I-85
sg7
I-85
sg11
I-85
sg8
I-85
sg9
I-85
sg22
I-85
ssI162
(dp265
g205
I144
sg4
I11
sg5
I14
sg6
I12
sS'RIGHTPAREN'
p266
I200
sg207
I143
sg101
I88
sg9
I5
sg31
I26
ssI163
(dp267
S'PERIOD'
p268
I201
ssI164
(dp269
g26
I47
sg20
I42
ssI165
(dp270
S'PERIOD'
p271
I203
ssI166
(dp272
g3
I-18
sg23
I-18
sg4
I-18
sg5
I-18
sg6
I-18
sS'PERIOD'
p273
I204
sg27
I-18
sg19
I-18
sg7
I-18
sg11
I-18
sg8
I-18
sg9
I-18
sg22
I-18
ssI167
(dp274
S'PERIOD'
p275
I205
ssI168
(dp276
g205
I144
sg4
I11
sg5
I14
sg6
I12
sg207
I143
sg101
I88
sg9
I5
sg31
I26
ssI169
(dp277
g3
I-54
sg4
I-54
sg5
I-54
sg6
I-54
sg27
I-54
sg19
I-54
sg7
I-54
sg8
I-54
sg9
I-54
sg22
I-54
ssI170
(dp278
g3
I-57
sg4
I-57
sg5
I-57
sg6
I-57
sg27
I-57
sg19
I-57
sg7
I-57
sg8
I-57
sg9
I-57
sg22
I-57
ssI171
(dp279
g3
I-55
sg56
I34
sg4
I-55
sg5
I-55
sg6
I-55
sg27
I-55
sg54
I35
sg19
I-55
sg7
I-55
sg53
I36
sg8
I-55
sg9
I37
sg22
I-55
ssI172
(dp280
g3
I-56
sg4
I-56
sg5
I-56
sg6
I-56
sg27
I-56
sg19
I-56
sg7
I-56
sg8
I-56
sg9
I-56
sg22
I-56
ssI173
(dp281
g3
I-60
sg4
I-60
sg5
I-60
sg6
I-60
sg27
I-60
sg19
I-60
sg7
I-60
sg8
I-60
sg9
I-60
sg22
I-60
ssI174
(dp282
g3
I-58
sg4
I-58
sg5
I-58
sg6
I-58
sg27
I-58
sg19
I-58
sg7
I-58
sg8
I-58
sg9
I-58
sg22
I-58
ssI175
(dp283
g3
I-63
sg4
I-63
sg5
I-63
sg6
I-63
sg27
I-63
sg19
I-63
sg7
I-63
sg8
I-63
sg9
I-63
sg22
I-63
ssI176
(dp284
g3
I-61
sg56
I34
sg4
I-61
sg5
I-61
sg6
I-61
sg27
I-61
sg54
I35
sg19
I-61
sg7
I-61
sg53
I36
sg8
I-61
sg9
I37
sg22
I-61
ssI177
(dp285
g3
I-62
sg4
I-62
sg5
I-62
sg6
I-62
sg27
I-62
sg19
I-62
sg7
I-62
sg8
I-62
sg9
I-62
sg22
I-62
ssI178
(dp286
g3
I-64
sg56
I34
sg4
I-64
sg5
I-64
sg6
I-64
sg27
I-64
sg54
I35
sg19
I-64
sg7
I-64
sg53
I36
sg8
I-64
sg9
I37
sg22
I-64
ssI179
(dp287
g3
I-59
sg4
I-59
sg5
I-59
sg6
I-59
sg27
I-59
sg19
I-59
sg7
I-59
sg8
I-59
sg9
I-59
sg22
I-59
ssI180
(dp288
g3
I-65
sg4
I-65
sg5
I-65
sg6
I-65
sg27
I-65
sg19
I-65
sg7
I-65
sg8
I-65
sg9
I-65
sg22
I-65
ssI181
(dp289
g3
I-66
sg4
I-66
sg5
I-66
sg6
I-66
sg27
I-66
sg19
I-66
sg7
I-66
sg8
I-66
sg9
I-66
sg22
I-66
ssI182
(dp290
g3
I-41
sg4
I-41
sg5
I-41
sg6
I-41
sg27
I-41
sg19
I-41
sg7
I-41
sg8
I-41
sg9
I-41
sg22
I-41
ssI183
(dp291
g3
I-44
sg4
I-44
sg5
I-44
sg6
I-44
sg27
I-44
sg19
I-44
sg7
I-44
sg8
I-44
sg9
I-44
sg22
I-44
ssI184
(dp292
g3
I-42
sg56
I34
sg4
I-42
sg5
I-42
sg6
I-42
sg27
I-42
sg54
I35
sg19
I-42
sg7
I-42
sg53
I36
sg8
I-42
sg9
I37
sg22
I-42
ssI185
(dp293
g3
I-43
sg4
I-43
sg5
I-43
sg6
I-43
sg27
I-43
sg19
I-43
sg7
I-43
sg8
I-43
sg9
I-43
sg22
I-43
ssI186
(dp294
g3
I-47
sg4
I-47
sg5
I-47
sg6
I-47
sg27
I-47
sg19
I-47
sg7
I-47
sg8
I-47
sg9
I-47
sg22
I-47
ssI187
(dp295
g3
I-45
sg4
I-45
sg5
I-45
sg6
I-45
sg27
I-45
sg19
I-45
sg7
I-45
sg8
I-45
sg9
I-45
sg22
I-45
ssI188
(dp296
g3
I-50
sg4
I-50
sg5
I-50
sg6
I-50
sg27
I-50
sg19
I-50
sg7
I-50
sg8
I-50
sg9
I-50
sg22
I-50
ssI189
(dp297
g3
I-48
sg56
I34
sg4
I-48
sg5
I-48
sg6
I-48
sg27
I-48
sg54
I35
sg19
I-48
sg7
I-48
sg53
I36
sg8
I-48
sg9
I37
sg22
I-48
ssI190
(dp298
g3
I-49
sg4
I-49
sg5
I-49
sg6
I-49
sg27
I-49
sg19
I-49
sg7
I-49
sg8
I-49
sg9
I-49
sg22
I-49
ssI191
(dp299
g3
I-46
sg4
I-46
sg5
I-46
sg6
I-46
sg27
I-46
sg19
I-46
sg7
I-46
sg8
I-46
sg9
I-46
sg22
I-46
ssI192
(dp300
g3
I-52
sg4
I-52
sg5
I-52
sg6
I-52
sg27
I-52
sg19
I-52
sg7
I-52
sg8
I-52
sg9
I-52
sg22
I-52
ssI193
(dp301
g3
I-51
sg56
I34
sg4
I-51
sg5
I-51
sg6
I-51
sg27
I-51
sg54
I35
sg19
I-51
sg7
I-51
sg53
I36
sg8
I-51
sg9
I37
sg22
I-51
ssI194
(dp302
g3
I-53
sg4
I-53
sg5
I-53
sg6
I-53
sg27
I-53
sg19
I-53
sg7
I-53
sg8
I-53
sg9
I-53
sg22
I-53
ssI195
(dp303
S'IDENTIFIER'
p304
I206
ssI196
(dp305
g215
I-84
sg261
I-84
sg216
I-84
ssI197
(dp306
g3
I-88
sg154
I-88
sg4
I-88
sg5
I-88
sg6
I-88
sg27
I-88
sg188
I-88
sg19
I-88
sg7
I-88
sg11
I-88
sg8
I-88
sg9
I-88
sg22
I-88
ssI198
(dp307
S'PERIOD'
p308
I207
ssI199
(dp309
g26
I47
sg20
I42
ssI200
(dp310
g3
I-87
sg154
I-87
sg4
I-87
sg5
I-87
sg6
I-87
sg27
I-87
sg188
I-87
sg19
I-87
sg7
I-87
sg11
I-87
sg8
I-87
sg9
I-87
sg22
I-87
ssI201
(dp311
S'PERIOD'
p312
I208
ssI202
(dp313
g215
I-83
sg261
I-83
sg216
I-83
ssI203
(dp314
S'IDENTIFIER'
p315
I209
ssI204
(dp316
S'IDENTIFIER'
p317
I210
ssI205
(dp318
S'PERIOD'
p319
I211
ssI206
(dp320
g11
I-103
sg154
I-103
sg155
I-103
ssI207
(dp321
S'PERIOD'
p322
I212
ssI208
(dp323
S'RIGHTPAREN'
p324
I213
ssI209
(dp325
g3
I-20
sg23
I-20
sg4
I-20
sg5
I-20
sg6
I-20
sg27
I-20
sg19
I-20
sg7
I-20
sg11
I-20
sg8
I-20
sg9
I-20
sg22
I-20
ssI210
(dp326
g3
I-19
sg23
I-19
sg4
I-19
sg5
I-19
sg6
I-19
sg27
I-19
sg19
I-19
sg7
I-19
sg11
I-19
sg8
I-19
sg9
I-19
sg22
I-19
ssI211
(dp327
S'PERIOD'
p328
I214
ssI212
(dp329
S'PERIOD'
p330
I215
ssI213
(dp331
g3
I-89
sg154
I-89
sg4
I-89
sg5
I-89
sg6
I-89
sg27
I-89
sg188
I-89
sg19
I-89
sg7
I-89
sg11
I-89
sg8
I-89
sg9
I-89
sg22
I-89
ssI214
(dp332
S'RIGHTPAREN'
p333
I216
ssI215
(dp334
S'RIGHTPAREN'
p335
I217
ssI216
(dp336
g3
I-82
sg23
I-82
sg4
I-82
sg5
I-82
sg6
I-82
sg161
I-82
sg27
I-82
sg11
I-82
sg7
I-82
sg151
I-82
sg8
I-82
sg9
I-82
sg22
I-82
ssI217
(dp337
g3
I-90
sg154
I-90
sg4
I-90
sg5
I-90
sg6
I-90
sg27
I-90
sg188
I-90
sg19
I-90
sg7
I-90
sg11
I-90
sg8
I-90
sg9
I-90
sg22
I-90
ss.(dp1
I0
(dp2
S'int'
p3
I1
sS'top'
p4
I7
sS'float'
p5
I2
sS'number'
p6
I13
sS'objectkey'
p7
I8
sS'objectitem'
p8
I4
sS'block'
p9
I15
sS'objectlist'
p10
I10
ssI1
(dp11
S'exp'
p12
I18
ssI2
(dp13
S'exp'
p14
I19
ssI3
(dp15
sI4
(dp16
sI5
(dp17
S'int'
p18
I20
sS'float'
p19
I21
ssI6
(dp20
sI7
(dp21
sI8
(dp22
S'object'
p23
I25
sg3
I1
sg5
I2
sg6
I13
sg7
I23
sS'block'
p24
I27
ssI9
(dp25
sI10
(dp26
g3
I1
sg5
I2
sg6
I13
sg7
I8
sS'objectitem'
p27
I32
sg9
I15
ssI11
(dp28
sI12
(dp29
sI13
(dp30
sI14
(dp31
sI15
(dp32
sI16
(dp33
sI17
(dp34
sI18
(dp35
sI19
(dp36
sI20
(dp37
sI21
(dp38
sI22
(dp39
S'function'
p40
I45
sS'booleanexp'
p41
I40
sg3
I1
sg23
I48
sS'list'
p42
I50
sg6
I49
sg5
I2
sg7
I41
sS'objectbrackets'
p43
I43
ssI23
(dp44
S'object'
p45
I25
sg3
I1
sg5
I2
sS'number'
p46
I13
sS'objectkey'
p47
I23
sg24
I27
ssI24
(dp48
S'booleanexp'
p49
I53
sg3
I1
sg5
I2
sS'list'
p50
I59
sS'number'
p51
I52
sS'object'
p52
I58
sS'objectkey'
p53
I54
sS'objectbrackets'
p54
I60
ssI25
(dp55
sI26
(dp56
g3
I1
sg5
I2
sg6
I13
sg7
I8
sg8
I4
sg9
I15
sS'objectlist'
p57
I61
ssI27
(dp58
sI28
(dp59
g3
I1
sg5
I2
sS'number'
p60
I63
ssI29
(dp61
g3
I1
sg5
I2
sg46
I64
ssI30
(dp62
g3
I1
sg5
I2
sS'number'
p63
I65
ssI31
(dp64
g3
I1
sg5
I2
sS'number'
p65
I66
ssI32
(dp66
sI33
(dp67
g3
I1
sg5
I2
sg6
I13
sg7
I8
sS'objectitem'
p68
I67
sg9
I15
ssI34
(dp69
g3
I1
sg5
I2
sS'number'
p70
I68
ssI35
(dp71
g3
I1
sg5
I2
sS'number'
p72
I70
ssI36
(dp73
g3
I1
sg5
I2
sS'number'
p74
I72
ssI37
(dp75
g3
I1
sg5
I2
sS'number'
p76
I74
ssI38
(dp77
sI39
(dp78
sI40
(dp79
sI41
(dp80
S'operator'
p81
I83
ssI42
(dp82
S'function'
p83
I89
sS'object'
p84
I91
sg3
I1
sg5
I2
sS'listitems'
p85
I85
sS'number'
p86
I92
sS'objectkey'
p87
I86
sS'objectbrackets'
p88
I93
sS'listitem'
p89
I87
ssI43
(dp90
sI44
(dp91
sI45
(dp92
sI46
(dp93
sI47
(dp94
sI48
(dp95
sI49
(dp96
S'operator'
p97
I99
ssI50
(dp98
sI51
(dp99
sI52
(dp100
g97
I99
ssI53
(dp101
sI54
(dp102
g81
I83
ssI55
(dp103
sI56
(dp104
sI57
(dp105
sI58
(dp106
sI59
(dp107
sI60
(dp108
sI61
(dp109
g3
I1
sg5
I2
sg6
I13
sg7
I8
sg27
I32
sg9
I15
ssI62
(dp110
sI63
(dp111
sI64
(dp112
sI65
(dp113
sI66
(dp114
sI67
(dp115
sI68
(dp116
sI69
(dp117
sI70
(dp118
sI71
(dp119
sI72
(dp120
sI73
(dp121
sI74
(dp122
sI75
(dp123
sI76
(dp124
S'function'
p125
I111
sg3
I1
sg5
I2
sS'number'
p126
I112
sS'objectkey'
p127
I109
ssI77
(dp128
sI78
(dp129
sI79
(dp130
sI80
(dp131
sI81
(dp132
S'function'
p133
I115
sg3
I1
sg5
I2
sS'number'
p134
I116
sS'objectkey'
p135
I114
ssI82
(dp136
sI83
(dp137
g3
I1
sS'objectkey'
p138
I119
sg5
I2
sS'number'
p139
I118
ssI84
(dp140
sI85
(dp141
sI86
(dp142
S'list'
p143
I122
ssI87
(dp144
sI88
(dp145
sI89
(dp146
sI90
(dp147
sI91
(dp148
sI92
(dp149
sI93
(dp150
sI94
(dp151
g83
I89
sg84
I91
sg3
I1
sg5
I2
sS'list'
p152
I129
sS'listitems'
p153
I128
sg86
I92
sg87
I86
sg88
I93
sg89
I87
sS'list_of_lists'
p154
I126
ssI95
(dp155
g3
I1
sS'objectkey'
p156
I131
sg5
I2
sg46
I13
ssI96
(dp157
sI97
(dp158
g83
I89
sg84
I91
sg3
I1
sg5
I2
sS'listitems'
p159
I132
sg86
I92
sg87
I86
sg88
I93
sg89
I87
ssI98
(dp160
g3
I1
sg5
I2
sS'number'
p161
I68
ssI99
(dp162
g3
I1
sS'objectkey'
p163
I133
sg5
I2
sS'number'
p164
I13
ssI100
(dp165
g3
I1
sg5
I2
sS'number'
p166
I70
ssI101
(dp167
g3
I1
sg5
I2
sS'number'
p168
I72
ssI102
(dp169
g3
I1
sg5
I2
sS'number'
p170
I74
ssI103
(dp171
g3
I1
sg5
I2
sg6
I13
sg7
I8
sg68
I67
sg9
I15
ssI104
(dp172
sI105
(dp173
g3
I1
sg5
I2
sg161
I68
ssI106
(dp174
g3
I1
sg5
I2
sg166
I70
ssI107
(dp175
g3
I1
sg5
I2
sg168
I72
ssI108
(dp176
g3
I1
sg5
I2
sg170
I74
ssI109
(dp177
sI110
(dp178
sI111
(dp179
sI112
(dp180
sI113
(dp181
sI114
(dp182
sI115
(dp183
sI116
(dp184
sI117
(dp185
sI118
(dp186
sI119
(dp187
sI120
(dp188
sI121
(dp189
S'function'
p190
I147
sS'object'
p191
I149
sg3
I1
sg5
I2
sg86
I92
sS'objectkey'
p192
I145
sg88
I93
sS'listitem'
p193
I146
ssI122
(dp194
sI123
(dp195
S'object'
p196
I152
sg3
I1
sg5
I2
sg143
I153
sg46
I13
sg87
I150
ssI124
(dp197
sI125
(dp198
g3
I1
sS'objectkey'
p199
I156
sg5
I2
sg84
I155
sg46
I13
ssI126
(dp200
sI127
(dp201
g83
I89
sg84
I91
sg3
I1
sg5
I2
sS'list'
p202
I160
sg85
I85
sg86
I92
sg87
I86
sg88
I93
sg89
I87
sS'list_of_lists'
p203
I159
ssI128
(dp204
sI129
(dp205
sI130
(dp206
sI131
(dp207
sI132
(dp208
sI133
(dp209
sI134
(dp210
sI135
(dp211
g125
I170
sg3
I1
sg5
I2
sg126
I171
sg127
I169
ssI136
(dp212
g3
I1
sS'objectkey'
p213
I173
sg5
I2
sg46
I13
ssI137
(dp214
S'function'
p215
I175
sg3
I1
sg5
I2
sS'number'
p216
I176
sS'objectkey'
p217
I174
ssI138
(dp218
S'function'
p219
I180
sg3
I1
sg5
I2
sS'number'
p220
I178
sS'objectkey'
p221
I179
ssI139
(dp222
g133
I183
sg3
I1
sg5
I2
sg134
I184
sg135
I182
ssI140
(dp223
g3
I1
sS'objectkey'
p224
I186
sg5
I2
sg46
I13
ssI141
(dp225
S'function'
p226
I188
sg3
I1
sg5
I2
sS'number'
p227
I189
sS'objectkey'
p228
I187
ssI142
(dp229
S'function'
p230
I192
sg3
I1
sg5
I2
sS'number'
p231
I193
sS'objectkey'
p232
I191
ssI143
(dp233
sI144
(dp234
sI145
(dp235
sI146
(dp236
sI147
(dp237
sI148
(dp238
sI149
(dp239
sI150
(dp240
sI151
(dp241
sI152
(dp242
sI153
(dp243
sI154
(dp244
sI155
(dp245
sI156
(dp246
sI157
(dp247
sI158
(dp248
S'list'
p249
I196
ssI159
(dp250
sI160
(dp251
sI161
(dp252
sI162
(dp253
g190
I147
sg191
I149
sg3
I1
sg5
I2
sg86
I92
sg192
I145
sg88
I93
sg193
I146
ssI163
(dp254
sI164
(dp255
g202
I202
ssI165
(dp256
sI166
(dp257
sI167
(dp258
sI168
(dp259
g190
I147
sg191
I149
sg3
I1
sg5
I2
sg86
I92
sg192
I145
sg88
I93
sg193
I146
ssI169
(dp260
sI170
(dp261
sI171
(dp262
sI172
(dp263
sI173
(dp264
sI174
(dp265
sI175
(dp266
sI176
(dp267
sI177
(dp268
sI178
(dp269
sI179
(dp270
sI180
(dp271
sI181
(dp272
sI182
(dp273
sI183
(dp274
sI184
(dp275
sI185
(dp276
sI186
(dp277
sI187
(dp278
sI188
(dp279
sI189
(dp280
sI190
(dp281
sI191
(dp282
sI192
(dp283
sI193
(dp284
sI194
(dp285
sI195
(dp286
sI196
(dp287
sI197
(dp288
sI198
(dp289
sI199
(dp290
g249
I196
ssI200
(dp291
sI201
(dp292
sI202
(dp293
sI203
(dp294
sI204
(dp295
sI205
(dp296
sI206
(dp297
sI207
(dp298
sI208
(dp299
sI209
(dp300
sI210
(dp301
sI211
(dp302
sI212
(dp303
sI213
(dp304
sI214
(dp305
sI215
(dp306
sI216
(dp307
sI217
(dp308
s.(lp1
(S"S' -> top"
p2
S"S'"
p3
I1
NNNtp4
a(S'top -> objectlist'
p5
S'top'
p6
I1
S'p_top'
p7
S'parser.py'
I125
tp8
a(S'objectlist -> objectitem'
p9
S'objectlist'
p10
I1
S'p_objectlist_0'
p11
S'parser.py'
I131
tp12
a(S'objectlist -> objectlist objectitem'
p13
S'objectlist'
p14
I2
S'p_objectlist_1'
p15
S'parser.py'
I137
tp16
a(S'objectlist -> objectlist COMMA objectitem'
p17
S'objectlist'
p18
I3
S'p_objectlist_2'
p19
S'parser.py'
I143
tp20
a(S'object -> LEFTBRACE objectlist RIGHTBRACE'
p21
S'object'
p22
I3
S'p_object_0'
p23
S'parser.py'
I149
tp24
a(S'object -> LEFTBRACE objectlist COMMA RIGHTBRACE'
p25
S'object'
p26
I4
S'p_object_1'
p27
S'parser.py'
I155
tp28
a(S'object -> LEFTBRACE RIGHTBRACE'
p29
S'object'
p30
I2
S'p_object_2'
p31
S'parser.py'
I161
tp32
a(S'objectkey -> IDENTIFIER'
p33
S'objectkey'
p34
I1
S'p_objectkey_0'
p35
S'parser.py'
I168
tp36
a(S'objectkey -> STRING'
p37
g34
I1
g35
S'parser.py'
I169
tp38
a(S'objectkey -> IDENTIFIER ADD number'
p39
S'objectkey'
p40
I3
S'p_objectkey_1'
p41
S'parser.py'
I177
tp42
a(S'objectkey -> number ADD IDENTIFIER'
p43
g40
I3
g41
S'parser.py'
I178
tp44
a(S'objectkey -> IDENTIFIER MINUS number'
p45
g40
I3
g41
S'parser.py'
I179
tp46
a(S'objectkey -> number MINUS IDENTIFIER'
p47
g40
I3
g41
S'parser.py'
I180
tp48
a(S'objectkey -> IDENTIFIER MULTIPLY number'
p49
g40
I3
g41
S'parser.py'
I181
tp50
a(S'objectkey -> number MULTIPLY IDENTIFIER'
p51
g40
I3
g41
S'parser.py'
I182
tp52
a(S'objectkey -> IDENTIFIER DIVIDE number'
p53
g40
I3
g41
S'parser.py'
I183
tp54
a(S'objectkey -> number DIVIDE IDENTIFIER'
p55
g40
I3
g41
S'parser.py'
I184
tp56
a(S'objectbrackets -> IDENTIFIER LEFTBRACKET objectkey RIGHTBRACKET'
p57
S'objectbrackets'
p58
I4
S'p_objectbrackets_0'
p59
S'parser.py'
I191
tp60
a(S'objectbrackets -> IDENTIFIER LEFTBRACKET objectkey RIGHTBRACKET PERIOD IDENTIFIER'
p61
S'objectbrackets'
p62
I6
S'p_objectbrackets_1'
p63
S'parser.py'
I198
tp64
a(S'objectbrackets -> IDENTIFIER LEFTBRACKET NUMBER RIGHTBRACKET PERIOD IDENTIFIER'
p65
g62
I6
g63
S'parser.py'
I199
tp66
a(S'objectitem -> objectkey EQUAL number'
p67
S'objectitem'
p68
I3
S'p_objectitem_0'
p69
S'parser.py'
I207
tp70
a(S'objectitem -> objectkey EQUAL BOOL'
p71
g68
I3
g69
S'parser.py'
I208
tp72
a(S'objectitem -> objectkey EQUAL STRING'
p73
g68
I3
g69
S'parser.py'
I209
tp74
a(S'objectitem -> objectkey EQUAL IDENTIFIER'
p75
g68
I3
g69
S'parser.py'
I210
tp76
a(S'objectitem -> objectkey EQUAL object'
p77
g68
I3
g69
S'parser.py'
I211
tp78
a(S'objectitem -> objectkey EQUAL objectkey'
p79
g68
I3
g69
S'parser.py'
I212
tp80
a(S'objectitem -> objectkey EQUAL list'
p81
g68
I3
g69
S'parser.py'
I213
tp82
a(S'objectitem -> objectkey EQUAL objectbrackets'
p83
g68
I3
g69
S'parser.py'
I214
tp84
a(S'objectitem -> objectkey EQUAL function'
p85
g68
I3
g69
S'parser.py'
I215
tp86
a(S'objectitem -> objectkey EQUAL booleanexp'
p87
g68
I3
g69
S'parser.py'
I216
tp88
a(S'objectitem -> objectkey COLON number'
p89
g68
I3
g69
S'parser.py'
I217
tp90
a(S'objectitem -> objectkey COLON BOOL'
p91
g68
I3
g69
S'parser.py'
I218
tp92
a(S'objectitem -> objectkey COLON STRING'
p93
g68
I3
g69
S'parser.py'
I219
tp94
a(S'objectitem -> objectkey COLON IDENTIFIER'
p95
g68
I3
g69
S'parser.py'
I220
tp96
a(S'objectitem -> objectkey COLON object'
p97
g68
I3
g69
S'parser.py'
I221
tp98
a(S'objectitem -> objectkey COLON objectkey'
p99
g68
I3
g69
S'parser.py'
I222
tp100
a(S'objectitem -> objectkey COLON list'
p101
g68
I3
g69
S'parser.py'
I223
tp102
a(S'objectitem -> objectkey COLON objectbrackets'
p103
g68
I3
g69
S'parser.py'
I224
tp104
a(S'objectitem -> objectkey COLON booleanexp'
p105
g68
I3
g69
S'parser.py'
I225
tp106
a(S'objectitem -> block'
p107
S'objectitem'
p108
I1
S'p_objectitem_1'
p109
S'parser.py'
I232
tp110
a(S'objectitem -> objectkey EQUAL objectkey QMARK objectkey COLON objectkey'
p111
S'objectitem'
p112
I7
S'p_objectitem_2'
p113
S'parser.py'
I239
tp114
a(S'objectitem -> objectkey EQUAL objectkey QMARK objectkey COLON number'
p115
g112
I7
g113
S'parser.py'
I240
tp116
a(S'objectitem -> objectkey EQUAL objectkey QMARK objectkey COLON BOOL'
p117
g112
I7
g113
S'parser.py'
I241
tp118
a(S'objectitem -> objectkey EQUAL objectkey QMARK objectkey COLON function'
p119
g112
I7
g113
S'parser.py'
I242
tp120
a(S'objectitem -> objectkey EQUAL objectkey QMARK number COLON objectkey'
p121
g112
I7
g113
S'parser.py'
I243
tp122
a(S'objectitem -> objectkey EQUAL objectkey QMARK BOOL COLON objectkey'
p123
g112
I7
g113
S'parser.py'
I244
tp124
a(S'objectitem -> objectkey EQUAL objectkey QMARK function COLON objectkey'
p125
g112
I7
g113
S'parser.py'
I245
tp126
a(S'objectitem -> objectkey EQUAL objectkey QMARK number COLON number'
p127
g112
I7
g113
S'parser.py'
I246
tp128
a(S'objectitem -> objectkey EQUAL objectkey QMARK number COLON BOOL'
p129
g112
I7
g113
S'parser.py'
I247
tp130
a(S'objectitem -> objectkey EQUAL objectkey QMARK number COLON function'
p131
g112
I7
g113
S'parser.py'
I248
tp132
a(S'objectitem -> objectkey EQUAL objectkey QMARK BOOL COLON number'
p133
g112
I7
g113
S'parser.py'
I249
tp134
a(S'objectitem -> objectkey EQUAL objectkey QMARK BOOL COLON function'
p135
g112
I7
g113
S'parser.py'
I250
tp136
a(S'objectitem -> objectkey EQUAL objectkey QMARK BOOL COLON BOOL'
p137
g112
I7
g113
S'parser.py'
I251
tp138
a(S'objectitem -> objectkey EQUAL booleanexp QMARK objectkey COLON objectkey'
p139
g112
I7
g113
S'parser.py'
I252
tp140
a(S'objectitem -> objectkey EQUAL booleanexp QMARK objectkey COLON number'
p141
g112
I7
g113
S'parser.py'
I253
tp142
a(S'objectitem -> objectkey EQUAL booleanexp QMARK objectkey COLON BOOL'
p143
g112
I7
g113
S'parser.py'
I254
tp144
a(S'objectitem -> objectkey EQUAL booleanexp QMARK objectkey COLON function'
p145
g112
I7
g113
S'parser.py'
I255
tp146
a(S'objectitem -> objectkey EQUAL booleanexp QMARK number COLON objectkey'
p147
g112
I7
g113
S'parser.py'
I256
tp148
a(S'objectitem -> objectkey EQUAL booleanexp QMARK BOOL COLON objectkey'
p149
g112
I7
g113
S'parser.py'
I257
tp150
a(S'objectitem -> objectkey EQUAL booleanexp QMARK function COLON objectkey'
p151
g112
I7
g113
S'parser.py'
I258
tp152
a(S'objectitem -> objectkey EQUAL booleanexp QMARK number COLON number'
p153
g112
I7
g113
S'parser.py'
I259
tp154
a(S'objectitem -> objectkey EQUAL booleanexp QMARK number COLON BOOL'
p155
g112
I7
g113
S'parser.py'
I260
tp156
a(S'objectitem -> objectkey EQUAL booleanexp QMARK number COLON function'
p157
g112
I7
g113
S'parser.py'
I261
tp158
a(S'objectitem -> objectkey EQUAL booleanexp QMARK BOOL COLON number'
p159
g112
I7
g113
S'parser.py'
I262
tp160
a(S'objectitem -> objectkey EQUAL booleanexp QMARK BOOL COLON function'
p161
g112
I7
g113
S'parser.py'
I263
tp162
a(S'objectitem -> objectkey EQUAL booleanexp QMARK BOOL COLON BOOL'
p163
g112
I7
g113
S'parser.py'
I264
tp164
a(S'operator -> EQ'
p165
S'operator'
p166
I1
S'p_operator_0'
p167
S'parser.py'
I272
tp168
a(S'operator -> NE'
p169
g166
I1
g167
S'parser.py'
I273
tp170
a(S'operator -> LT'
p171
g166
I1
g167
S'parser.py'
I274
tp172
a(S'operator -> GT'
p173
g166
I1
g167
S'parser.py'
I275
tp174
a(S'operator -> LE'
p175
g166
I1
g167
S'parser.py'
I276
tp176
a(S'operator -> GE'
p177
g166
I1
g167
S'parser.py'
I277
tp178
a(S'booleanexp -> objectkey operator objectkey'
p179
S'booleanexp'
p180
I3
S'p_booleanexp_0'
p181
S'parser.py'
I285
tp182
a(S'booleanexp -> objectkey operator number'
p183
g180
I3
g181
S'parser.py'
I286
tp184
a(S'booleanexp -> number operator objectkey'
p185
g180
I3
g181
S'parser.py'
I287
tp186
a(S'block -> objectkey object'
p187
S'block'
p188
I2
S'p_block_0'
p189
S'parser.py'
I294
tp190
a(S'block -> objectkey block'
p191
S'block'
p192
I2
S'p_block_1'
p193
S'parser.py'
I300
tp194
a(S'list -> LEFTBRACKET listitems RIGHTBRACKET'
p195
S'list'
p196
I3
S'p_list_0'
p197
S'parser.py'
I307
tp198
a(S'list -> LEFTBRACKET listitems COMMA RIGHTBRACKET'
p199
g196
I4
g197
S'parser.py'
I308
tp200
a(S'list -> LEFTBRACKET RIGHTBRACKET'
p201
S'list'
p202
I2
S'p_list_1'
p203
S'parser.py'
I316
tp204
a(S'list -> LEFTPAREN RIGHTPAREN'
p205
g202
I2
g203
S'parser.py'
I317
tp206
a(S'list -> LEFTPAREN LEFTBRACKET listitems RIGHTBRACKET PERIOD PERIOD PERIOD RIGHTPAREN'
p207
S'list'
p208
I8
S'p_list_2'
p209
S'parser.py'
I325
tp210
a(S'list_of_lists -> list COMMA list'
p211
S'list_of_lists'
p212
I3
S'p_list_of_lists_0'
p213
S'parser.py'
I333
tp214
a(S'list_of_lists -> list_of_lists COMMA list'
p215
S'list_of_lists'
p216
I3
S'p_list_of_lists_1'
p217
S'parser.py'
I341
tp218
a(S'function -> IDENTIFIER LEFTPAREN listitems RIGHTPAREN'
p219
S'function'
p220
I4
S'p_function_0'
p221
S'parser.py'
I349
tp222
a(S'function -> IDENTIFIER LEFTPAREN list_of_lists RIGHTPAREN'
p223
g220
I4
g221
S'parser.py'
I350
tp224
a(S'function -> IDENTIFIER LEFTPAREN listitems COMMA RIGHTPAREN'
p225
S'function'
p226
I5
S'p_function_1'
p227
S'parser.py'
I359
tp228
a(S'function -> IDENTIFIER LEFTPAREN list_of_lists COMMA RIGHTPAREN'
p229
g226
I5
g227
S'parser.py'
I360
tp230
a(S'function -> IDENTIFIER LEFTPAREN list PERIOD PERIOD PERIOD RIGHTPAREN'
p231
S'function'
p232
I7
S'p_function_2'
p233
S'parser.py'
I369
tp234
a(S'function -> IDENTIFIER LEFTPAREN LEFTBRACKET list_of_lists RIGHTBRACKET PERIOD PERIOD PERIOD RIGHTPAREN'
p235
S'function'
p236
I9
S'p_function_3'
p237
S'parser.py'
I378
tp238
a(S'listitems -> listitem'
p239
S'listitems'
p240
I1
S'p_listitems_0'
p241
S'parser.py'
I418
tp242
a(S'listitems -> function'
p243
g240
I1
g241
S'parser.py'
I419
tp244
a(S'listitems -> object COMMA'
p245
g240
I2
g241
S'parser.py'
I420
tp246
a(S'listitems -> objectkey COMMA'
p247
g240
I2
g241
S'parser.py'
I421
tp248
a(S'listitems -> listitems COMMA listitem'
p249
S'listitems'
p250
I3
S'p_listitems_1'
p251
S'parser.py'
I429
tp252
a(S'listitems -> listitems COMMA function'
p253
g250
I3
g251
S'parser.py'
I430
tp254
a(S'listitems -> listitems COMMA objectkey'
p255
g250
I3
g251
S'parser.py'
I431
tp256
a(S'listitems -> object COMMA object'
p257
S'listitems'
p258
I3
S'p_listitems_2'
p259
S'parser.py'
I439
tp260
a(S'listitems -> object COMMA objectkey'
p261
g258
I3
g259
S'parser.py'
I440
tp262
a(S'listitems -> objectkey COMMA objectkey'
p263
g258
I3
g259
S'parser.py'
I441
tp264
a(S'listitems -> objectkey COMMA object'
p265
g258
I3
g259
S'parser.py'
I442
tp266
a(S'listitems -> objectkey COMMA list'
p267
g258
I3
g259
S'parser.py'
I443
tp268
a(S'listitems -> objectkey COMMA IDENTIFIER ASTERISK_PERIOD IDENTIFIER'
p269
S'listitems'
p270
I5
S'p_listitems_3'
p271
S'parser.py'
I451
tp272
a(S'listitems -> objectkey list'
p273
S'listitems'
p274
I2
S'p_listitems_4'
p275
S'parser.py'
I459
tp276
a(S'listitems -> listitems COMMA COMMENT'
p277
S'listitems'
p278
I3
S'p_listitems_5'
p279
S'parser.py'
I468
tp280
a(S'listitems -> listitems COMMA MULTICOMMENT'
p281
g278
I3
g279
S'parser.py'
I469
tp282
a(S'listitem -> number'
p283
S'listitem'
p284
I1
S'p_listitem_0'
p285
S'parser.py'
I478
tp286
a(S'listitem -> object'
p287
g284
I1
g285
S'parser.py'
I479
tp288
a(S'listitem -> objectkey'
p289
g284
I1
g285
S'parser.py'
I480
tp290
a(S'listitem -> objectbrackets'
p291
g284
I1
g285
S'parser.py'
I481
tp292
a(S'listitem -> IDENTIFIER ASTERISK_PERIOD IDENTIFIER'
p293
S'listitem'
p294
I3
S'p_listitem_1'
p295
S'parser.py'
I489
tp296
a(S'number -> int'
p297
S'number'
p298
I1
S'p_number_0'
p299
S'parser.py'
I496
tp300
a(S'number -> float'
p301
S'number'
p302
I1
S'p_number_1'
p303
S'parser.py'
I502
tp304
a(S'number -> int exp'
p305
S'number'
p306
I2
S'p_number_2'
p307
S'parser.py'
I508
tp308
a(S'number -> float exp'
p309
S'number'
p310
I2
S'p_number_3'
p311
S'parser.py'
I514
tp312
a(S'number -> number ADD number'
p313
S'number'
p314
I3
S'p_number_4'
p315
S'parser.py'
I521
tp316
a(S'number -> number MINUS number'
p317
S'number'
p318
I3
S'p_number_5'
p319
S'parser.py'
I529
tp320
a(S'number -> number MULTIPLY number'
p321
S'number'
p322
I3
S'p_number_6'
p323
S'parser.py'
I537
tp324
a(S'number -> number DIVIDE number'
p325
S'number'
p326
I3
S'p_number_7'
p327
S'parser.py'
I545
tp328
a(S'int -> MINUS int'
p329
S'int'
p330
I2
S'p_int_0'
p331
S'parser.py'
I552
tp332
a(S'int -> NUMBER'
p333
S'int'
p334
I1
S'p_int_1'
p335
S'parser.py'
I558
tp336
a(S'float -> MINUS float'
p337
S'float'
p338
I2
S'p_float_0'
p339
S'parser.py'
I564
tp340
a(S'float -> FLOAT'
p341
S'float'
p342
I1
S'p_float_1'
p343
S'parser.py'
I568
tp344
a(S'exp -> EPLUS NUMBER'
p345
S'exp'
p346
I2
S'p_exp_0'
p347
S'parser.py'
I572
tp348
a(S'exp -> EMINUS NUMBER'
p349
S'exp'
p350
I2
S'p_exp_1'
p351
S'parser.py'
I578
tp352
a(S'block -> COMMENT'
p353
S'block'
p354
I1
S'p_comment_0'
p355
S'parser.py'
I585
tp356
a(S'block -> MULTICOMMENT'
p357
g354
I1
g355
S'parser.py'
I586
tp358
a.